; Function Attrs: nounwind uwtable
define ptr @l_Lean_Elab_Deriving_FromToJson_mkFromJsonBody(ptr noundef %0, ptr noundef %1, ptr noundef %2, ptr noundef %3, ptr noundef %4, ptr noundef %5, ptr noundef %6, ptr noundef %7, ptr noundef %8) local_unnamed_addr #0 {
  %10 = tail call ptr @l_Lean_Expr_getAppFn(ptr noundef %1) #5
  %11 = tail call ptr @l_Lean_Expr_constName_x21(ptr noundef %10) #5
  %12 = ptrtoint ptr %10 to i64
  %13 = and i64 %12, 1
  %.not = icmp eq i64 %13, 0
  br i1 %.not, label %14, label %lean_dec.exit52

14:                                               ; preds = %9
  %15 = load i32, ptr %10, align 4, !tbaa !8
  %16 = icmp sgt i32 %15, 1
  br i1 %16, label %17, label %19, !prof !11

17:                                               ; preds = %14
  %18 = add nsw i32 %15, -1
  store i32 %18, ptr %10, align 4, !tbaa !8
  br label %lean_dec.exit52

19:                                               ; preds = %14
  %.not.i = icmp eq i32 %15, 0
  br i1 %.not.i, label %lean_dec.exit52, label %20

20:                                               ; preds = %19
  tail call void @lean_dec_ref_cold(ptr noundef nonnull %10) #5
  br label %lean_dec.exit52

lean_dec.exit52:                                  ; preds = %20, %19, %17, %9
  %21 = tail call ptr @lean_st_ref_get(ptr noundef %7, ptr noundef %8) #5
  %22 = getelementptr inbounds nuw i8, ptr %21, i64 8
  %23 = load ptr, ptr %22, align 8, !tbaa !4
  %24 = ptrtoint ptr %23 to i64
  %25 = and i64 %24, 1
  %.not79 = icmp eq i64 %25, 0
  br i1 %.not79, label %26, label %lean_inc.exit44

26:                                               ; preds = %lean_dec.exit52
  %.val.i = load i32, ptr %23, align 4, !tbaa !8
  %27 = icmp sgt i32 %.val.i, 0
  br i1 %27, label %28, label %30, !prof !11

28:                                               ; preds = %26
  %29 = add nuw i32 %.val.i, 1
  store i32 %29, ptr %23, align 4, !tbaa !8
  br label %lean_inc.exit44

30:                                               ; preds = %26
  %.not.i69 = icmp eq i32 %.val.i, 0
  br i1 %.not.i69, label %lean_inc.exit44, label %31

31:                                               ; preds = %30
  tail call void @lean_inc_ref_cold(ptr noundef nonnull %23) #5
  br label %lean_inc.exit44

lean_inc.exit44:                                  ; preds = %31, %30, %28, %lean_dec.exit52
  %32 = getelementptr inbounds nuw i8, ptr %21, i64 16
  %33 = load ptr, ptr %32, align 8, !tbaa !4
  %34 = ptrtoint ptr %33 to i64
  %35 = and i64 %34, 1
  %.not80 = icmp eq i64 %35, 0
  br i1 %.not80, label %36, label %lean_inc.exit43

36:                                               ; preds = %lean_inc.exit44
  %.val.i70 = load i32, ptr %33, align 4, !tbaa !8
  %37 = icmp sgt i32 %.val.i70, 0
  br i1 %37, label %38, label %40, !prof !11

38:                                               ; preds = %36
  %39 = add nuw i32 %.val.i70, 1
  store i32 %39, ptr %33, align 4, !tbaa !8
  br label %lean_inc.exit43

40:                                               ; preds = %36
  %.not.i71 = icmp eq i32 %.val.i70, 0
  br i1 %.not.i71, label %lean_inc.exit43, label %41

41:                                               ; preds = %40
  tail call void @lean_inc_ref_cold(ptr noundef nonnull %33) #5
  br label %lean_inc.exit43

lean_inc.exit43:                                  ; preds = %41, %40, %38, %lean_inc.exit44
  %42 = ptrtoint ptr %21 to i64
  %43 = and i64 %42, 1
  %.not81 = icmp eq i64 %43, 0
  br i1 %.not81, label %44, label %lean_dec.exit51

44:                                               ; preds = %lean_inc.exit43
  %45 = load i32, ptr %21, align 4, !tbaa !8
  %46 = icmp sgt i32 %45, 1
  br i1 %46, label %47, label %49, !prof !11

47:                                               ; preds = %44
  %48 = add nsw i32 %45, -1
  store i32 %48, ptr %21, align 4, !tbaa !8
  br label %lean_dec.exit51

49:                                               ; preds = %44
  %.not.i53 = icmp eq i32 %45, 0
  br i1 %.not.i53, label %lean_dec.exit51, label %50

50:                                               ; preds = %49
  tail call void @lean_dec_ref_cold(ptr noundef nonnull %21) #5
  br label %lean_dec.exit51

lean_dec.exit51:                                  ; preds = %50, %49, %47, %lean_inc.exit43
  %51 = getelementptr inbounds nuw i8, ptr %23, i64 8
  %52 = load ptr, ptr %51, align 8, !tbaa !4
  %53 = ptrtoint ptr %52 to i64
  %54 = and i64 %53, 1
  %.not82 = icmp eq i64 %54, 0
  br i1 %.not82, label %55, label %lean_inc.exit42

55:                                               ; preds = %lean_dec.exit51
  %.val.i73 = load i32, ptr %52, align 4, !tbaa !8
  %56 = icmp sgt i32 %.val.i73, 0
  br i1 %56, label %57, label %59, !prof !11

57:                                               ; preds = %55
  %58 = add nuw i32 %.val.i73, 1
  store i32 %58, ptr %52, align 4, !tbaa !8
  br label %lean_inc.exit42

59:                                               ; preds = %55
  %.not.i74 = icmp eq i32 %.val.i73, 0
  br i1 %.not.i74, label %lean_inc.exit42, label %60

60:                                               ; preds = %59
  tail call void @lean_inc_ref_cold(ptr noundef nonnull %52) #5
  br label %lean_inc.exit42

lean_inc.exit42:                                  ; preds = %60, %59, %57, %lean_dec.exit51
  br i1 %.not79, label %61, label %lean_dec.exit50

61:                                               ; preds = %lean_inc.exit42
  %62 = load i32, ptr %23, align 4, !tbaa !8
  %63 = icmp sgt i32 %62, 1
  br i1 %63, label %64, label %66, !prof !11

64:                                               ; preds = %61
  %65 = add nsw i32 %62, -1
  store i32 %65, ptr %23, align 4, !tbaa !8
  br label %lean_dec.exit50

66:                                               ; preds = %61
  %.not.i55 = icmp eq i32 %62, 0
  br i1 %.not.i55, label %lean_dec.exit50, label %67

67:                                               ; preds = %66
  tail call void @lean_dec_ref_cold(ptr noundef nonnull %23) #5
  br label %lean_dec.exit50

lean_dec.exit50:                                  ; preds = %67, %66, %64, %lean_inc.exit42
  %68 = ptrtoint ptr %11 to i64
  %69 = and i64 %68, 1
  %.not83 = icmp eq i64 %69, 0
  br i1 %.not83, label %70, label %lean_inc.exit

70:                                               ; preds = %lean_dec.exit50
  %.val.i76 = load i32, ptr %11, align 4, !tbaa !8
  %71 = icmp sgt i32 %.val.i76, 0
  br i1 %71, label %72, label %74, !prof !11

72:                                               ; preds = %70
  %73 = add nuw i32 %.val.i76, 1
  store i32 %73, ptr %11, align 4, !tbaa !8
  br label %lean_inc.exit

74:                                               ; preds = %70
  %.not.i77 = icmp eq i32 %.val.i76, 0
  br i1 %.not.i77, label %lean_inc.exit, label %75

75:                                               ; preds = %74
  tail call void @lean_inc_ref_cold(ptr noundef nonnull %11) #5
  br label %lean_inc.exit

lean_inc.exit:                                    ; preds = %75, %74, %72, %lean_dec.exit50
  %76 = tail call zeroext i8 @l_Lean_isStructure(ptr noundef %52, ptr noundef %11) #5
  %77 = icmp eq i8 %76, 0
  br i1 %77, label %78, label %80

78:                                               ; preds = %lean_inc.exit
  %79 = tail call ptr @l_Lean_Elab_Deriving_FromToJson_mkFromJsonBodyForInduct(ptr noundef %0, ptr noundef %11, ptr noundef %2, ptr noundef %3, ptr noundef %4, ptr noundef %5, ptr noundef %6, ptr noundef %7, ptr noundef %33)
  br label %lean_dec.exit

80:                                               ; preds = %lean_inc.exit
  %81 = ptrtoint ptr %0 to i64
  %82 = and i64 %81, 1
  %.not84 = icmp eq i64 %82, 0
  br i1 %.not84, label %83, label %lean_dec.exit49

83:                                               ; preds = %80
  %84 = load i32, ptr %0, align 4, !tbaa !8
  %85 = icmp sgt i32 %84, 1
  br i1 %85, label %86, label %88, !prof !11

86:                                               ; preds = %83
  %87 = add nsw i32 %84, -1
  store i32 %87, ptr %0, align 4, !tbaa !8
  br label %lean_dec.exit49

88:                                               ; preds = %83
  %.not.i57 = icmp eq i32 %84, 0
  br i1 %.not.i57, label %lean_dec.exit49, label %89

89:                                               ; preds = %88
  tail call void @lean_dec_ref_cold(ptr noundef nonnull %0) #5
  br label %lean_dec.exit49

lean_dec.exit49:                                  ; preds = %89, %88, %86, %80
  %90 = tail call ptr @l_Lean_Elab_Deriving_FromToJson_mkFromJsonBodyForStruct(ptr noundef %11, ptr poison, ptr poison, ptr poison, ptr poison, ptr noundef %6, ptr noundef %7, ptr noundef %33)
  %91 = ptrtoint ptr %7 to i64
  %92 = and i64 %91, 1
  %.not85 = icmp eq i64 %92, 0
  br i1 %.not85, label %93, label %lean_dec.exit48

93:                                               ; preds = %lean_dec.exit49
  %94 = load i32, ptr %7, align 4, !tbaa !8
  %95 = icmp sgt i32 %94, 1
  br i1 %95, label %96, label %98, !prof !11

96:                                               ; preds = %93
  %97 = add nsw i32 %94, -1
  store i32 %97, ptr %7, align 4, !tbaa !8
  br label %lean_dec.exit48

98:                                               ; preds = %93
  %.not.i59 = icmp eq i32 %94, 0
  br i1 %.not.i59, label %lean_dec.exit48, label %99

99:                                               ; preds = %98
  tail call void @lean_dec_ref_cold(ptr noundef nonnull %7) #5
  br label %lean_dec.exit48

lean_dec.exit48:                                  ; preds = %99, %98, %96, %lean_dec.exit49
  %100 = ptrtoint ptr %5 to i64
  %101 = and i64 %100, 1
  %.not86 = icmp eq i64 %101, 0
  br i1 %.not86, label %102, label %lean_dec.exit47

102:                                              ; preds = %lean_dec.exit48
  %103 = load i32, ptr %5, align 4, !tbaa !8
  %104 = icmp sgt i32 %103, 1
  br i1 %104, label %105, label %107, !prof !11

105:                                              ; preds = %102
  %106 = add nsw i32 %103, -1
  store i32 %106, ptr %5, align 4, !tbaa !8
  br label %lean_dec.exit47

107:                                              ; preds = %102
  %.not.i61 = icmp eq i32 %103, 0
  br i1 %.not.i61, label %lean_dec.exit47, label %108

108:                                              ; preds = %107
  tail call void @lean_dec_ref_cold(ptr noundef nonnull %5) #5
  br label %lean_dec.exit47

lean_dec.exit47:                                  ; preds = %108, %107, %105, %lean_dec.exit48
  %109 = ptrtoint ptr %4 to i64
  %110 = and i64 %109, 1
  %.not87 = icmp eq i64 %110, 0
  br i1 %.not87, label %111, label %lean_dec.exit46

111:                                              ; preds = %lean_dec.exit47
  %112 = load i32, ptr %4, align 4, !tbaa !8
  %113 = icmp sgt i32 %112, 1
  br i1 %113, label %114, label %116, !prof !11

114:                                              ; preds = %111
  %115 = add nsw i32 %112, -1
  store i32 %115, ptr %4, align 4, !tbaa !8
  br label %lean_dec.exit46

116:                                              ; preds = %111
  %.not.i63 = icmp eq i32 %112, 0
  br i1 %.not.i63, label %lean_dec.exit46, label %117

117:                                              ; preds = %116
  tail call void @lean_dec_ref_cold(ptr noundef nonnull %4) #5
  br label %lean_dec.exit46

lean_dec.exit46:                                  ; preds = %117, %116, %114, %lean_dec.exit47
  %118 = ptrtoint ptr %3 to i64
  %119 = and i64 %118, 1
  %.not88 = icmp eq i64 %119, 0
  br i1 %.not88, label %120, label %lean_dec.exit45

120:                                              ; preds = %lean_dec.exit46
  %121 = load i32, ptr %3, align 4, !tbaa !8
  %122 = icmp sgt i32 %121, 1
  br i1 %122, label %123, label %125, !prof !11

123:                                              ; preds = %120
  %124 = add nsw i32 %121, -1
  store i32 %124, ptr %3, align 4, !tbaa !8
  br label %lean_dec.exit45

125:                                              ; preds = %120
  %.not.i65 = icmp eq i32 %121, 0
  br i1 %.not.i65, label %lean_dec.exit45, label %126

126:                                              ; preds = %125
  tail call void @lean_dec_ref_cold(ptr noundef nonnull %3) #5
  br label %lean_dec.exit45

lean_dec.exit45:                                  ; preds = %126, %125, %123, %lean_dec.exit46
  %127 = ptrtoint ptr %2 to i64
  %128 = and i64 %127, 1
  %.not89 = icmp eq i64 %128, 0
  br i1 %.not89, label %129, label %lean_dec.exit

129:                                              ; preds = %lean_dec.exit45
  %130 = load i32, ptr %2, align 4, !tbaa !8
  %131 = icmp sgt i32 %130, 1
  br i1 %131, label %132, label %134, !prof !11

132:                                              ; preds = %129
  %133 = add nsw i32 %130, -1
  store i32 %133, ptr %2, align 4, !tbaa !8
  br label %lean_dec.exit

134:                                              ; preds = %129
  %.not.i67 = icmp eq i32 %130, 0
  br i1 %.not.i67, label %lean_dec.exit, label %135

135:                                              ; preds = %134
  tail call void @lean_dec_ref_cold(ptr noundef nonnull %2) #5
  br label %lean_dec.exit

lean_dec.exit:                                    ; preds = %lean_dec.exit45, %132, %134, %135, %78
  %.0 = phi ptr [ %79, %78 ], [ %90, %135 ], [ %90, %134 ], [ %90, %132 ], [ %90, %lean_dec.exit45 ]
  ret ptr %.0
}